target datalayout = "e-m:e-p270:32:32-p271:32:32-p272:64:64-i64:64-i128:128-f80:128-n8:16:32:64-S128"
target triple = "x86_64-pc-linux-gnu"

%struct.sdshdr8 = type { i8, i8, i8, [0 x i8] }
%struct.sdshdr16 = type <{ i16, i16, i8, [0 x i8] }>
%struct.sdshdr32 = type <{ i32, i32, i8, [0 x i8] }>
%struct.sdshdr64 = type <{ i64, i64, i8, [0 x i8] }>
%struct.client = type { i64, i64, ptr, i8, i8, i8, i8, i32, ptr, ptr, ptr, ptr, ptr, i64, i64, i32, ptr, i32, i32, ptr, i64, ptr, ptr, ptr, ptr, ptr, i32, i32, i64, ptr, i64, ptr, i64, i64, i64, i32, ptr, i64, i64, i32, i32, i32, i32, i64, i64, ptr, i64, i64, i64, i64, i64, i64, i64, i64, [41 x i8], i32, ptr, i32, i32, i64, %struct.multiState, %struct.blockingState, i64, ptr, ptr, ptr, ptr, ptr, ptr, ptr, ptr, ptr, ptr, ptr, ptr, ptr, ptr, i64, ptr, i64, i32, ptr, ptr, ptr, i64, %struct.listNode, i64, i64, i32, i64, ptr }
%struct.multiState = type { ptr, i32, i32, i32, i64, i32 }
%struct.blockingState = type { i32, i64, i32, ptr, i32, i32, i64, ptr, ptr, i64 }
%struct.listNode = type { ptr, ptr, ptr }

; Function Attrs: inlinehint nounwind uwtable
define internal i64 @sdslen(ptr noundef %0) #4 {
  %2 = alloca i64, align 8
  %3 = alloca ptr, align 8
  %4 = alloca i8, align 1
  %5 = alloca i32, align 4
  store ptr %0, ptr %3, align 8, !tbaa !5
  call void @llvm.lifetime.start.p0(i64 1, ptr %4) #16
  %6 = load ptr, ptr %3, align 8, !tbaa !5
  %7 = getelementptr inbounds i8, ptr %6, i64 -1
  %8 = load i8, ptr %7, align 1, !tbaa !16
  store i8 %8, ptr %4, align 1, !tbaa !16
  %9 = load i8, ptr %4, align 1, !tbaa !16
  %10 = zext i8 %9 to i32
  %11 = and i32 %10, 7
  switch i32 %11, label %40 [
    i32 0, label %12
    i32 1, label %17
    i32 2, label %23
    i32 3, label %29
    i32 4, label %35
  ]

12:                                               ; preds = %1
  %13 = load i8, ptr %4, align 1, !tbaa !16
  %14 = zext i8 %13 to i32
  %15 = ashr i32 %14, 3
  %16 = sext i32 %15 to i64
  store i64 %16, ptr %2, align 8
  store i32 1, ptr %5, align 4
  br label %41

17:                                               ; preds = %1
  %18 = load ptr, ptr %3, align 8, !tbaa !5
  %19 = getelementptr inbounds i8, ptr %18, i64 -3
  %20 = getelementptr inbounds nuw %struct.sdshdr8, ptr %19, i32 0, i32 0
  %21 = load i8, ptr %20, align 1, !tbaa !16
  %22 = zext i8 %21 to i64
  store i64 %22, ptr %2, align 8
  store i32 1, ptr %5, align 4
  br label %41

23:                                               ; preds = %1
  %24 = load ptr, ptr %3, align 8, !tbaa !5
  %25 = getelementptr inbounds i8, ptr %24, i64 -5
  %26 = getelementptr inbounds nuw %struct.sdshdr16, ptr %25, i32 0, i32 0
  %27 = load i16, ptr %26, align 1, !tbaa !17
  %28 = zext i16 %27 to i64
  store i64 %28, ptr %2, align 8
  store i32 1, ptr %5, align 4
  br label %41

29:                                               ; preds = %1
  %30 = load ptr, ptr %3, align 8, !tbaa !5
  %31 = getelementptr inbounds i8, ptr %30, i64 -9
  %32 = getelementptr inbounds nuw %struct.sdshdr32, ptr %31, i32 0, i32 0
  %33 = load i32, ptr %32, align 1, !tbaa !19
  %34 = zext i32 %33 to i64
  store i64 %34, ptr %2, align 8
  store i32 1, ptr %5, align 4
  br label %41

35:                                               ; preds = %1
  %36 = load ptr, ptr %3, align 8, !tbaa !5
  %37 = getelementptr inbounds i8, ptr %36, i64 -17
  %38 = getelementptr inbounds nuw %struct.sdshdr64, ptr %37, i32 0, i32 0
  %39 = load i64, ptr %38, align 1, !tbaa !20
  store i64 %39, ptr %2, align 8
  store i32 1, ptr %5, align 4
  br label %41

40:                                               ; preds = %1
  store i64 0, ptr %2, align 8
  store i32 1, ptr %5, align 4
  br label %41

41:                                               ; preds = %40, %35, %29, %23, %17, %12
  call void @llvm.lifetime.end.p0(i64 1, ptr %4) #16
  %42 = load i64, ptr %2, align 8
  ret i64 %42
}

; Function Attrs: nounwind uwtable
define dso_local void @commandProcessed(ptr noundef %0) #0 {
  %2 = alloca ptr, align 8
  %3 = alloca i64, align 8
  %4 = alloca i64, align 8
  store ptr %0, ptr %2, align 8, !tbaa !24
  %5 = load ptr, ptr %2, align 8, !tbaa !24
  %6 = getelementptr inbounds nuw %struct.client, ptr %5, i32 0, i32 1
  %7 = load i64, ptr %6, align 8, !tbaa !104
  %8 = and i64 %7, 16
  %9 = icmp ne i64 %8, 0
  br i1 %9, label %10, label %11

10:                                               ; preds = %1
  br label %74

11:                                               ; preds = %1
  %12 = load ptr, ptr %2, align 8, !tbaa !24
  %13 = call i64 @reqresAppendResponse(ptr noundef %12)
  %14 = load ptr, ptr %2, align 8, !tbaa !24
  call void @resetClientInternal(ptr noundef %14, i32 noundef 0)
  call void @llvm.lifetime.start.p0(i64 8, ptr %3) #16
  %15 = load ptr, ptr %2, align 8, !tbaa !24
  %16 = getelementptr inbounds nuw %struct.client, ptr %15, i32 0, i32 47
  %17 = load i64, ptr %16, align 8, !tbaa !113
  store i64 %17, ptr %3, align 8, !tbaa !155
  %18 = load ptr, ptr %2, align 8, !tbaa !24
  %19 = getelementptr inbounds nuw %struct.client, ptr %18, i32 0, i32 1
  %20 = load i64, ptr %19, align 8, !tbaa !104
  %21 = and i64 %20, 2
  %22 = icmp ne i64 %21, 0
  br i1 %22, label %23, label %44

23:                                               ; preds = %11
  %24 = load ptr, ptr %2, align 8, !tbaa !24
  %25 = getelementptr inbounds nuw %struct.client, ptr %24, i32 0, i32 1
  %26 = load i64, ptr %25, align 8, !tbaa !104
  %27 = and i64 %26, 8
  %28 = icmp ne i64 %27, 0
  br i1 %28, label %44, label %29

29:                                               ; preds = %23
  %30 = load ptr, ptr %2, align 8, !tbaa !24
  %31 = getelementptr inbounds nuw %struct.client, ptr %30, i32 0, i32 46
  %32 = load i64, ptr %31, align 8, !tbaa !114
  %33 = load ptr, ptr %2, align 8, !tbaa !24
  %34 = getelementptr inbounds nuw %struct.client, ptr %33, i32 0, i32 12
  %35 = load ptr, ptr %34, align 8, !tbaa !87
  %36 = call i64 @sdslen(ptr noundef %35)
  %37 = sub i64 %32, %36
  %38 = load ptr, ptr %2, align 8, !tbaa !24
  %39 = getelementptr inbounds nuw %struct.client, ptr %38, i32 0, i32 13
  %40 = load i64, ptr %39, align 8, !tbaa !86
  %41 = add i64 %37, %40
  %42 = load ptr, ptr %2, align 8, !tbaa !24
  %43 = getelementptr inbounds nuw %struct.client, ptr %42, i32 0, i32 47
  store i64 %41, ptr %43, align 8, !tbaa !113
  br label %44

44:                                               ; preds = %29, %23, %11
  %45 = load ptr, ptr %2, align 8, !tbaa !24
  %46 = getelementptr inbounds nuw %struct.client, ptr %45, i32 0, i32 1
  %47 = load i64, ptr %46, align 8, !tbaa !104
  %48 = and i64 %47, 2
  %49 = icmp ne i64 %48, 0
  br i1 %49, label %50, label %73

50:                                               ; preds = %44
  call void @llvm.lifetime.start.p0(i64 8, ptr %4) #16
  %51 = load ptr, ptr %2, align 8, !tbaa !24
  %52 = getelementptr inbounds nuw %struct.client, ptr %51, i32 0, i32 47
  %53 = load i64, ptr %52, align 8, !tbaa !113
  %54 = load i64, ptr %3, align 8, !tbaa !155
  %55 = sub nsw i64 %53, %54
  store i64 %55, ptr %4, align 8, !tbaa !155
  %56 = load i64, ptr %4, align 8, !tbaa !155
  %57 = icmp ne i64 %56, 0
  br i1 %57, label %58, label %72

58:                                               ; preds = %50
  %59 = load ptr, ptr %2, align 8, !tbaa !24
  %60 = getelementptr inbounds nuw %struct.client, ptr %59, i32 0, i32 12
  %61 = load ptr, ptr %60, align 8, !tbaa !87
  %62 = load ptr, ptr %2, align 8, !tbaa !24
  %63 = getelementptr inbounds nuw %struct.client, ptr %62, i32 0, i32 48
  %64 = load i64, ptr %63, align 8, !tbaa !115
  %65 = getelementptr inbounds i8, ptr %61, i64 %64
  %66 = load i64, ptr %4, align 8, !tbaa !155
  call void @replicationFeedStreamFromMasterStream(ptr noundef %65, i64 noundef %66)
  %67 = load i64, ptr %4, align 8, !tbaa !155
  %68 = load ptr, ptr %2, align 8, !tbaa !24
  %69 = getelementptr inbounds nuw %struct.client, ptr %68, i32 0, i32 48
  %70 = load i64, ptr %69, align 8, !tbaa !115
  %71 = add nsw i64 %70, %67
  store i64 %71, ptr %69, align 8, !tbaa !115
  br label %72

72:                                               ; preds = %58, %50
  call void @llvm.lifetime.end.p0(i64 8, ptr %4) #16
  br label %73

73:                                               ; preds = %72, %44
  call void @llvm.lifetime.end.p0(i64 8, ptr %3) #16
  br label %74

74:                                               ; preds = %73, %10
  ret void
}