; Function Attrs: nounwind uwtable
define dso_local void @commandProcessed(ptr noundef %0) local_unnamed_addr #0 {
  %2 = getelementptr inbounds nuw i8, ptr %0, i64 8
  %3 = load i64, ptr %2, align 8, !tbaa !86
  %4 = and i64 %3, 16
  %.not = icmp eq i64 %4, 0
  br i1 %.not, label %5, label %.thread23

5:                                                ; preds = %1
  %6 = tail call i64 @reqresAppendResponse(ptr noundef nonnull %0) #26
  tail call fastcc void @resetClientInternal(ptr noundef nonnull %0, i32 noundef 0)
  %7 = getelementptr inbounds nuw i8, ptr %0, i64 312
  %8 = load i64, ptr %7, align 8, !tbaa !230
  %9 = load i64, ptr %2, align 8, !tbaa !86
  %10 = and i64 %9, 10
  %or.cond = icmp eq i64 %10, 2
  br i1 %or.cond, label %11, label %.thread23

11:                                               ; preds = %5
  %12 = getelementptr inbounds nuw i8, ptr %0, i64 304
  %13 = load i64, ptr %12, align 8, !tbaa !112
  %14 = getelementptr inbounds nuw i8, ptr %0, i64 64
  %15 = load ptr, ptr %14, align 8, !tbaa !105
  %16 = getelementptr inbounds i8, ptr %15, i64 -1
  %17 = load i8, ptr %16, align 1, !tbaa !12
  %18 = zext i8 %17 to i32
  %19 = and i32 %18, 7
  switch i32 %19, label %38 [
    i32 0, label %20
    i32 1, label %23
    i32 2, label %27
    i32 3, label %31
    i32 4, label %35
  ]

20:                                               ; preds = %11
  %21 = lshr i32 %18, 3
  %22 = zext nneg i32 %21 to i64
  br label %38

23:                                               ; preds = %11
  %24 = getelementptr inbounds i8, ptr %15, i64 -3
  %25 = load i8, ptr %24, align 1, !tbaa !12
  %26 = zext i8 %25 to i64
  br label %38

27:                                               ; preds = %11
  %28 = getelementptr inbounds i8, ptr %15, i64 -5
  %29 = load i16, ptr %28, align 1, !tbaa !13
  %30 = zext i16 %29 to i64
  br label %38

31:                                               ; preds = %11
  %32 = getelementptr inbounds i8, ptr %15, i64 -9
  %33 = load i32, ptr %32, align 1, !tbaa !15
  %34 = zext i32 %33 to i64
  br label %38

35:                                               ; preds = %11
  %36 = getelementptr inbounds i8, ptr %15, i64 -17
  %37 = load i64, ptr %36, align 1, !tbaa !16
  br label %38

38:                                               ; preds = %11, %20, %23, %27, %31, %35
  %.0.i = phi i64 [ %37, %35 ], [ %34, %31 ], [ %30, %27 ], [ %26, %23 ], [ %22, %20 ], [ 0, %11 ]
  %39 = sub i64 %13, %.0.i
  %40 = getelementptr inbounds nuw i8, ptr %0, i64 72
  %41 = load i64, ptr %40, align 8, !tbaa !106
  %42 = add i64 %39, %41
  store i64 %42, ptr %7, align 8, !tbaa !230
  %.not21 = icmp eq i64 %42, %8
  br i1 %.not21, label %.thread23, label %43

43:                                               ; preds = %38
  %44 = sub nsw i64 %42, %8
  %45 = getelementptr inbounds nuw i8, ptr %0, i64 64
  %46 = load ptr, ptr %45, align 8, !tbaa !105
  %47 = getelementptr inbounds nuw i8, ptr %0, i64 320
  %48 = load i64, ptr %47, align 8, !tbaa !231
  %49 = getelementptr inbounds i8, ptr %46, i64 %48
  tail call void @replicationFeedStreamFromMasterStream(ptr noundef %49, i64 noundef %44) #26
  %50 = load i64, ptr %47, align 8, !tbaa !231
  %51 = add nsw i64 %50, %44
  store i64 %51, ptr %47, align 8, !tbaa !231
  br label %.thread23

.thread23:                                        ; preds = %5, %43, %38, %1
  ret void
}